; Function Attrs: mustprogress nofree norecurse nosync nounwind willreturn memory(readwrite, inaccessiblemem: none) uwtable
define void @_ZN5ImGui17SetNextWindowSizeERK6ImVec2i(ptr noundef nonnull readonly align 4 captures(none) dereferenceable(8) %0, i32 noundef %1) local_unnamed_addr #34 {
  %3 = load ptr, ptr @GImGui, align 8, !tbaa !216
  %4 = getelementptr inbounds nuw i8, ptr %3, i64 7608
  %5 = load i32, ptr %4, align 8, !tbaa !1020
  %6 = or i32 %5, 2
  store i32 %6, ptr %4, align 8, !tbaa !1020
  %7 = getelementptr inbounds nuw i8, ptr %3, i64 7640
  %8 = load i64, ptr %0, align 4
  store i64 %8, ptr %7, align 8
  %9 = tail call i32 @llvm.umax.i32(i32 %1, i32 1)
  %10 = getelementptr inbounds nuw i8, ptr %3, i64 7616
  store i32 %9, ptr %10, align 8, !tbaa !1030
  ret void
}